target datalayout = "e-m:e-p270:32:32-p271:32:32-p272:64:64-i64:64-i128:128-f80:128-n8:16:32:64-S128"
target triple = "x86_64-pc-linux-gnu"

%struct.connectdata = type { %struct.Curl_llist_node, ptr, ptr, i64, ptr, i64, ptr, ptr, %struct.hostname, ptr, ptr, %struct.hostname, %struct.proxy_info, %struct.proxy_info, %struct.ip_quadruple, %struct.ip_quadruple, ptr, ptr, ptr, ptr, ptr, %struct.curltime, %struct.curltime, %struct.curltime, [2 x i32], [2 x ptr], [2 x ptr], [2 x ptr], %struct.anon, %struct.easy_pollset, %struct.ssl_primary_config, %struct.ssl_primary_config, %struct.ConnectBits, ptr, ptr, %struct.curltime, i32, i32, %struct.Curl_llist, i32, i32, %struct.ntlmdata, %struct.ntlmdata, %union.anon.1, ptr, ptr, i16, i32, i32, i32, i32, i16, i16, i8, i8, i8, i8, i8, i8, i8 }
%struct.Curl_llist_node = type { ptr, ptr, ptr, ptr }
%struct.hostname = type { ptr, ptr, ptr, ptr }
%struct.proxy_info = type { %struct.hostname, i32, i8, ptr, ptr }
%struct.ip_quadruple = type { [46 x i8], [46 x i8], i32, i32 }
%struct.anon = type { [2 x %struct.curltime], i32 }
%struct.easy_pollset = type { [5 x i32], i32, [5 x i8] }
%struct.ssl_primary_config = type { ptr, ptr, ptr, ptr, ptr, ptr, ptr, ptr, ptr, ptr, ptr, ptr, ptr, ptr, i8, i32, i8, i8 }
%struct.ConnectBits = type { i64 }
%struct.curltime = type { i64, i32 }
%struct.Curl_llist = type { ptr, ptr, ptr, i64 }
%struct.ntlmdata = type { i32, [8 x i8], i32, ptr }
%union.anon.1 = type { %struct.ftp_conn }
%struct.ftp_conn = type { %struct.pingpong, ptr, ptr, ptr, ptr, ptr, ptr, ptr, i8, i64, ptr, i64, i32, i32, i32, i32, i32, i16, i8, i8, i8, i8, i8 }
%struct.pingpong = type { i64, i8, ptr, i64, i64, %struct.curltime, i64, %struct.dynbuf, %struct.dynbuf, i64, i64, ptr, ptr }
%struct.dynbuf = type { ptr, i64, i64, i64 }
%struct.Curl_easy = type { i32, i64, i64, ptr, %struct.Curl_llist_node, %struct.Curl_llist_node, i32, i32, %struct.Curl_message, %struct.easy_pollset, %struct.Names, ptr, ptr, ptr, ptr, %struct.SingleRequest, %struct.UserDefined, ptr, ptr, ptr, %struct.Progress, %struct.UrlState, ptr, %struct.PureInfo, %struct.curl_tlssessioninfo }
%struct.Curl_message = type { %struct.Curl_llist_node, %struct.CURLMsg }
%struct.CURLMsg = type { i32, ptr, %union.anon }
%union.anon = type { ptr }
%struct.Names = type { ptr, i32 }
%struct.SingleRequest = type <{ i64, i64, i64, i64, %struct.curltime, i32, i32, i32, i32, i64, i32, i32, i8, i8, [2 x i8], i32, ptr, ptr, %struct.bufq, i64, i64, ptr, ptr, %union.anon.0, ptr, i8, i32, [3 x i8] }>
%struct.bufq = type { ptr, ptr, ptr, ptr, i64, i64, i64, i32 }
%union.anon.0 = type { ptr }
%struct.UserDefined = type <{ ptr, ptr, ptr, ptr, ptr, ptr, i64, i64, i64, ptr, ptr, i64, ptr, ptr, ptr, ptr, ptr, ptr, ptr, ptr, ptr, ptr, ptr, ptr, ptr, ptr, ptr, ptr, ptr, ptr, ptr, ptr, ptr, ptr, ptr, i64, i64, i64, i64, i64, i64, i64, i64, i64, ptr, ptr, %struct.curl_mimepart, ptr, ptr, ptr, i64, %struct.ssl_config_data, %struct.ssl_config_data, ptr, i16, i8, i8, %struct.ssl_general_config, i32, i32, i32, [4 x i8], ptr, ptr, i64, i32, i8, i8, i8, i8, ptr, ptr, ptr, i32, [4 x i8], [74 x ptr], [8 x ptr], i32, i32, i32, [4 x i8], ptr, i32, [4 x i8], ptr, ptr, ptr, ptr, ptr, i32, i32, i32, i32, i32, i32, i32, i32, i64, ptr, ptr, i64, ptr, i64, ptr, ptr, ptr, ptr, i32, i16, i16, i16, i8, i8, i8, i8, i8, i8, i8, i8, i64, [6 x i8] }>
%struct.curl_mimepart = type { ptr, ptr, i32, i32, ptr, ptr, ptr, ptr, ptr, ptr, ptr, ptr, ptr, ptr, ptr, i64, %struct.mime_state, ptr, %struct.mime_encoder_state, i64 }
%struct.mime_state = type { i32, ptr, i64 }
%struct.mime_encoder_state = type { i64, i64, i64, [256 x i8] }
%struct.ssl_config_data = type { %struct.ssl_primary_config, i64, ptr, ptr, ptr, ptr, ptr, ptr, ptr, i16 }
%struct.ssl_general_config = type { i32 }
%struct.Progress = type { i64, %struct.pgrs_dir, %struct.pgrs_dir, i64, i64, i32, i32, i64, i64, i64, i64, i64, i64, i64, i64, i64, %struct.curltime, %struct.curltime, %struct.curltime, %struct.curltime, %struct.curltime, [6 x i64], [6 x %struct.curltime], i32, i8 }
%struct.pgrs_dir = type { i64, i64, i64, %struct.pgrs_measure }
%struct.pgrs_measure = type { %struct.curltime, i64 }
%struct.UrlState = type { %struct.curltime, i64, i64, %struct.dynbuf, ptr, i64, ptr, i32, i32, i32, ptr, i32, i64, i32, ptr, %struct.digestdata, %struct.digestdata, %struct.auth, %struct.auth, %struct.Curl_async, ptr, i8, %struct.curltime, %struct.Curl_tree, %struct.Curl_llist, [15 x %struct.time_node], ptr, ptr, i64, i64, i64, i64, [32 x i8], i64, ptr, ptr, ptr, %struct.urlpieces, ptr, ptr, ptr, ptr, ptr, i64, %struct.dynbuf, %struct.Curl_llist, [2 x %struct.curl_header], ptr, i32, ptr, ptr, %struct.store_netrc, %struct.dynamically_allocated_data, i8, i8, i8, i8, i32 }
%struct.digestdata = type { ptr, ptr, ptr, ptr, ptr, ptr, i32, i8, i8 }
%struct.auth = type { i64, i64, i64, i8 }
%struct.Curl_async = type { ptr, ptr, ptr, ptr, i32, i32, i8 }
%struct.Curl_tree = type { ptr, ptr, ptr, ptr, %struct.curltime, ptr }
%struct.time_node = type { %struct.Curl_llist_node, %struct.curltime, i32 }
%struct.urlpieces = type { ptr, ptr, ptr, ptr, ptr, ptr, ptr, ptr }
%struct.curl_header = type { ptr, ptr, i64, i64, i32, ptr }
%struct.store_netrc = type { %struct.dynbuf, ptr, i8 }
%struct.dynamically_allocated_data = type { ptr, ptr, ptr, ptr, ptr, ptr, ptr, ptr, ptr, ptr, ptr, ptr, ptr, ptr }
%struct.PureInfo = type { i32, i32, i32, i64, i64, i64, i64, i64, i64, i64, ptr, ptr, i64, i32, %struct.ip_quadruple, i32, ptr, i32, %struct.curl_certinfo, i32, i8 }
%struct.curl_certinfo = type { i32, ptr }
%struct.curl_tlssessioninfo = type { i32, ptr }
%struct.imap_conn = type { %struct.pingpong, %struct.SASL, %struct.dynbuf, ptr, ptr, i32, [5 x i8], i8, i8, i8 }
%struct.SASL = type { ptr, i32, ptr, i16, i16, i16, i8 }

@.str.15 = private unnamed_addr constant [1 x i8] zeroinitializer, align 1

; Function Attrs: nounwind uwtable
define internal i32 @imap_get_message(ptr noundef %0, ptr noundef %1) #0 {
  %3 = alloca ptr, align 8
  %4 = alloca ptr, align 8
  %5 = alloca ptr, align 8
  %6 = alloca i64, align 8
  store ptr %0, ptr %3, align 8, !tbaa !3
  store ptr %1, ptr %4, align 8, !tbaa !160
  call void @llvm.lifetime.start.p0(i64 8, ptr %5) #6
  %7 = load ptr, ptr %3, align 8, !tbaa !3
  %8 = getelementptr inbounds nuw %struct.Curl_easy, ptr %7, i32 0, i32 3
  %9 = load ptr, ptr %8, align 8, !tbaa !16
  %10 = getelementptr inbounds nuw %struct.connectdata, ptr %9, i32 0, i32 43
  %11 = getelementptr inbounds nuw %struct.imap_conn, ptr %10, i32 0, i32 0
  %12 = getelementptr inbounds nuw %struct.pingpong, ptr %11, i32 0, i32 8
  %13 = call ptr @Curl_dyn_ptr(ptr noundef %12)
  store ptr %13, ptr %5, align 8, !tbaa !123
  call void @llvm.lifetime.start.p0(i64 8, ptr %6) #6
  %14 = load ptr, ptr %3, align 8, !tbaa !3
  %15 = getelementptr inbounds nuw %struct.Curl_easy, ptr %14, i32 0, i32 3
  %16 = load ptr, ptr %15, align 8, !tbaa !16
  %17 = getelementptr inbounds nuw %struct.connectdata, ptr %16, i32 0, i32 43
  %18 = getelementptr inbounds nuw %struct.imap_conn, ptr %17, i32 0, i32 0
  %19 = getelementptr inbounds nuw %struct.pingpong, ptr %18, i32 0, i32 10
  %20 = load i64, ptr %19, align 8, !tbaa !83
  store i64 %20, ptr %6, align 8, !tbaa !119
  %21 = load i64, ptr %6, align 8, !tbaa !119
  %22 = icmp ugt i64 %21, 2
  br i1 %22, label %23, label %89

23:                                               ; preds = %2
  %24 = load i64, ptr %6, align 8, !tbaa !119
  %25 = sub i64 %24, 2
  store i64 %25, ptr %6, align 8, !tbaa !119
  %26 = load ptr, ptr %5, align 8, !tbaa !123
  %27 = getelementptr inbounds i8, ptr %26, i64 2
  store ptr %27, ptr %5, align 8, !tbaa !123
  br label %28

28:                                               ; preds = %41, %23
  %29 = load ptr, ptr %5, align 8, !tbaa !123
  %30 = load i8, ptr %29, align 1, !tbaa !83
  %31 = sext i8 %30 to i32
  %32 = icmp eq i32 %31, 32
  br i1 %32, label %38, label %33

33:                                               ; preds = %28
  %34 = load ptr, ptr %5, align 8, !tbaa !123
  %35 = load i8, ptr %34, align 1, !tbaa !83
  %36 = sext i8 %35 to i32
  %37 = icmp eq i32 %36, 9
  br label %38

38:                                               ; preds = %33, %28
  %39 = phi i1 [ true, %28 ], [ %37, %33 ]
  br i1 %39, label %40, label %46

40:                                               ; preds = %38
  br label %41

41:                                               ; preds = %40
  %42 = load ptr, ptr %5, align 8, !tbaa !123
  %43 = getelementptr inbounds nuw i8, ptr %42, i32 1
  store ptr %43, ptr %5, align 8, !tbaa !123
  %44 = load i64, ptr %6, align 8, !tbaa !119
  %45 = add i64 %44, -1
  store i64 %45, ptr %6, align 8, !tbaa !119
  br label %28, !llvm.loop !162

46:                                               ; preds = %38
  br label %47

47:                                               ; preds = %80, %46
  %48 = load i64, ptr %6, align 8, !tbaa !119
  %49 = add i64 %48, -1
  store i64 %49, ptr %6, align 8, !tbaa !119
  %50 = icmp ne i64 %48, 0
  br i1 %50, label %51, label %81

51:                                               ; preds = %47
  %52 = load ptr, ptr %5, align 8, !tbaa !123
  %53 = load i64, ptr %6, align 8, !tbaa !119
  %54 = getelementptr inbounds nuw i8, ptr %52, i64 %53
  %55 = load i8, ptr %54, align 1, !tbaa !83
  %56 = sext i8 %55 to i32
  %57 = icmp ne i32 %56, 13
  br i1 %57, label %58, label %80

58:                                               ; preds = %51
  %59 = load ptr, ptr %5, align 8, !tbaa !123
  %60 = load i64, ptr %6, align 8, !tbaa !119
  %61 = getelementptr inbounds nuw i8, ptr %59, i64 %60
  %62 = load i8, ptr %61, align 1, !tbaa !83
  %63 = sext i8 %62 to i32
  %64 = icmp ne i32 %63, 10
  br i1 %64, label %65, label %80

65:                                               ; preds = %58
  %66 = load ptr, ptr %5, align 8, !tbaa !123
  %67 = load i64, ptr %6, align 8, !tbaa !119
  %68 = getelementptr inbounds nuw i8, ptr %66, i64 %67
  %69 = load i8, ptr %68, align 1, !tbaa !83
  %70 = sext i8 %69 to i32
  %71 = icmp ne i32 %70, 32
  br i1 %71, label %72, label %80

72:                                               ; preds = %65
  %73 = load ptr, ptr %5, align 8, !tbaa !123
  %74 = load i64, ptr %6, align 8, !tbaa !119
  %75 = getelementptr inbounds nuw i8, ptr %73, i64 %74
  %76 = load i8, ptr %75, align 1, !tbaa !83
  %77 = sext i8 %76 to i32
  %78 = icmp ne i32 %77, 9
  br i1 %78, label %79, label %80

79:                                               ; preds = %72
  br label %81

80:                                               ; preds = %72, %65, %58, %51
  br label %47, !llvm.loop !163

81:                                               ; preds = %79, %47
  %82 = load ptr, ptr %5, align 8, !tbaa !123
  %83 = load i64, ptr %6, align 8, !tbaa !119
  %84 = add i64 %83, 1
  store i64 %84, ptr %6, align 8, !tbaa !119
  %85 = getelementptr inbounds nuw i8, ptr %82, i64 %84
  store i8 0, ptr %85, align 1, !tbaa !83
  %86 = load ptr, ptr %4, align 8, !tbaa !160
  %87 = load ptr, ptr %5, align 8, !tbaa !123
  %88 = load i64, ptr %6, align 8, !tbaa !119
  call void @Curl_bufref_set(ptr noundef %86, ptr noundef %87, i64 noundef %88, ptr noundef null)
  br label %91

89:                                               ; preds = %2
  %90 = load ptr, ptr %4, align 8, !tbaa !160
  call void @Curl_bufref_set(ptr noundef %90, ptr noundef @.str.15, i64 noundef 0, ptr noundef null)
  br label %91

91:                                               ; preds = %89, %81
  call void @llvm.lifetime.end.p0(i64 8, ptr %6) #6
  call void @llvm.lifetime.end.p0(i64 8, ptr %5) #6
  ret i32 0
}